target datalayout = "e-m:e-p270:32:32-p271:32:32-p272:64:64-i64:64-i128:128-f80:128-n8:16:32:64-S128"
target triple = "x86_64-pc-linux-gnu"

%struct.archive_read_disk = type { %struct.archive, ptr, i8, i8, ptr, ptr, ptr, ptr, i32, ptr, ptr, ptr, ptr, ptr, ptr, ptr, ptr, ptr, ptr, ptr }
%struct.archive = type { i32, i32, ptr, i32, ptr, i32, i32, ptr, %struct.archive_string, ptr, i32, i32, ptr, ptr, i64, i64, i64, i8, i64 }
%struct.archive_string = type { ptr, i64, i64 }
%struct.tree = type { ptr, ptr, ptr, ptr, i32, i32, i32, %struct.archive_string, ptr, i64, i32, i32, i32, i32, i32, %struct.stat, %struct.stat, i32, i32, %struct.restore_time, ptr, ptr, i32, i32, i8, i8, ptr, ptr, i32, i32, i32, i32, i32, i32, i64, i64, ptr, i64 }
%struct.stat = type { i64, i64, i64, i32, i32, i32, i32, i64, i64, i64, i64, %struct.timespec, %struct.timespec, %struct.timespec, [3 x i64] }
%struct.timespec = type { i64, i64 }
%struct.restore_time = type { ptr, i64, i64, i64, i64, i32, i32 }

@.str.14 = private unnamed_addr constant [25 x i8] c"archive_read_disk_open_w\00", align 1
@.str.15 = private unnamed_addr constant [22 x i8] c"Can't allocate memory\00", align 1
@.str.16 = private unnamed_addr constant [38 x i8] c"Can't convert a path to a char string\00", align 1
@.str.30 = private unnamed_addr constant [24 x i8] c"Can't allocate tar data\00", align 1

; Function Attrs: nounwind uwtable
define internal ptr @tree_open(ptr noundef %0, i32 noundef %1, i32 noundef %2) #0 {
  %4 = alloca ptr, align 8
  %5 = alloca ptr, align 8
  %6 = alloca i32, align 4
  %7 = alloca i32, align 4
  %8 = alloca ptr, align 8
  store ptr %0, ptr %5, align 8
  store i32 %1, ptr %6, align 4
  store i32 %2, ptr %7, align 4
  %9 = call noalias ptr @calloc(i64 noundef 1, i64 noundef 560) #9
  store ptr %9, ptr %8, align 8
  %10 = icmp eq ptr %9, null
  br i1 %10, label %11, label %12

11:                                               ; preds = %3
  store ptr null, ptr %4, align 8
  br label %35

12:                                               ; preds = %3
  br label %13

13:                                               ; preds = %12
  %14 = load ptr, ptr %8, align 8
  %15 = getelementptr inbounds %struct.tree, ptr %14, i32 0, i32 7
  %16 = getelementptr inbounds %struct.archive_string, ptr %15, i32 0, i32 0
  store ptr null, ptr %16, align 8
  %17 = load ptr, ptr %8, align 8
  %18 = getelementptr inbounds %struct.tree, ptr %17, i32 0, i32 7
  %19 = getelementptr inbounds %struct.archive_string, ptr %18, i32 0, i32 1
  store i64 0, ptr %19, align 8
  %20 = load ptr, ptr %8, align 8
  %21 = getelementptr inbounds %struct.tree, ptr %20, i32 0, i32 7
  %22 = getelementptr inbounds %struct.archive_string, ptr %21, i32 0, i32 2
  store i64 0, ptr %22, align 8
  br label %23

23:                                               ; preds = %13
  %24 = load ptr, ptr %8, align 8
  %25 = getelementptr inbounds %struct.tree, ptr %24, i32 0, i32 7
  %26 = call ptr @archive_string_ensure(ptr noundef %25, i64 noundef 31)
  %27 = load i32, ptr %6, align 4
  %28 = trunc i32 %27 to i8
  %29 = load ptr, ptr %8, align 8
  %30 = getelementptr inbounds %struct.tree, ptr %29, i32 0, i32 24
  store i8 %28, ptr %30, align 8
  %31 = load ptr, ptr %8, align 8
  %32 = load ptr, ptr %5, align 8
  %33 = load i32, ptr %7, align 4
  %34 = call ptr @tree_reopen(ptr noundef %31, ptr noundef %32, i32 noundef %33)
  store ptr %34, ptr %4, align 8
  br label %35

35:                                               ; preds = %23, %11
  %36 = load ptr, ptr %4, align 8
  ret ptr %36
}

; Function Attrs: nounwind uwtable
define internal i32 @_archive_read_disk_open(ptr noundef %0, ptr noundef %1) #0 {
  %3 = alloca i32, align 4
  %4 = alloca ptr, align 8
  %5 = alloca ptr, align 8
  %6 = alloca ptr, align 8
  store ptr %0, ptr %4, align 8
  store ptr %1, ptr %5, align 8
  %7 = load ptr, ptr %4, align 8
  store ptr %7, ptr %6, align 8
  %8 = load ptr, ptr %6, align 8
  %9 = getelementptr inbounds %struct.archive_read_disk, ptr %8, i32 0, i32 4
  %10 = load ptr, ptr %9, align 8
  %11 = icmp ne ptr %10, null
  br i1 %11, label %12, label %24

12:                                               ; preds = %2
  %13 = load ptr, ptr %6, align 8
  %14 = getelementptr inbounds %struct.archive_read_disk, ptr %13, i32 0, i32 4
  %15 = load ptr, ptr %14, align 8
  %16 = load ptr, ptr %5, align 8
  %17 = load ptr, ptr %6, align 8
  %18 = getelementptr inbounds %struct.archive_read_disk, ptr %17, i32 0, i32 8
  %19 = load i32, ptr %18, align 8
  %20 = and i32 %19, 1
  %21 = call ptr @tree_reopen(ptr noundef %15, ptr noundef %16, i32 noundef %20)
  %22 = load ptr, ptr %6, align 8
  %23 = getelementptr inbounds %struct.archive_read_disk, ptr %22, i32 0, i32 4
  store ptr %21, ptr %23, align 8
  br label %37

24:                                               ; preds = %2
  %25 = load ptr, ptr %5, align 8
  %26 = load ptr, ptr %6, align 8
  %27 = getelementptr inbounds %struct.archive_read_disk, ptr %26, i32 0, i32 2
  %28 = load i8, ptr %27, align 8
  %29 = sext i8 %28 to i32
  %30 = load ptr, ptr %6, align 8
  %31 = getelementptr inbounds %struct.archive_read_disk, ptr %30, i32 0, i32 8
  %32 = load i32, ptr %31, align 8
  %33 = and i32 %32, 1
  %34 = call ptr @tree_open(ptr noundef %25, i32 noundef %29, i32 noundef %33)
  %35 = load ptr, ptr %6, align 8
  %36 = getelementptr inbounds %struct.archive_read_disk, ptr %35, i32 0, i32 4
  store ptr %34, ptr %36, align 8
  br label %37

37:                                               ; preds = %24, %12
  %38 = load ptr, ptr %6, align 8
  %39 = getelementptr inbounds %struct.archive_read_disk, ptr %38, i32 0, i32 4
  %40 = load ptr, ptr %39, align 8
  %41 = icmp eq ptr %40, null
  br i1 %41, label %42, label %48

42:                                               ; preds = %37
  %43 = load ptr, ptr %6, align 8
  %44 = getelementptr inbounds %struct.archive_read_disk, ptr %43, i32 0, i32 0
  call void (ptr, i32, ptr, ...) @archive_set_error(ptr noundef %44, i32 noundef 12, ptr noundef @.str.30)
  %45 = load ptr, ptr %6, align 8
  %46 = getelementptr inbounds %struct.archive_read_disk, ptr %45, i32 0, i32 0
  %47 = getelementptr inbounds %struct.archive, ptr %46, i32 0, i32 1
  store i32 32768, ptr %47, align 4
  store i32 -30, ptr %3, align 4
  br label %52

48:                                               ; preds = %37
  %49 = load ptr, ptr %6, align 8
  %50 = getelementptr inbounds %struct.archive_read_disk, ptr %49, i32 0, i32 0
  %51 = getelementptr inbounds %struct.archive, ptr %50, i32 0, i32 1
  store i32 2, ptr %51, align 4
  store i32 0, ptr %3, align 4
  br label %52

52:                                               ; preds = %48, %42
  %53 = load i32, ptr %3, align 4
  ret i32 %53
}

; Function Attrs: nounwind uwtable
define dso_local i32 @archive_read_disk_open_w(ptr noundef %0, ptr noundef %1) #0 {
  %3 = alloca i32, align 4
  %4 = alloca ptr, align 8
  %5 = alloca ptr, align 8
  %6 = alloca ptr, align 8
  %7 = alloca %struct.archive_string, align 8
  %8 = alloca i32, align 4
  %9 = alloca i32, align 4
  store ptr %0, ptr %4, align 8
  store ptr %1, ptr %5, align 8
  %10 = load ptr, ptr %4, align 8
  store ptr %10, ptr %6, align 8
  br label %11

11:                                               ; preds = %2
  %12 = load ptr, ptr %4, align 8
  %13 = call i32 @__archive_check_magic(ptr noundef %12, i32 noundef 195932357, i32 noundef 33, ptr noundef @.str.14)
  store i32 %13, ptr %9, align 4
  %14 = load i32, ptr %9, align 4
  %15 = icmp eq i32 %14, -30
  br i1 %15, label %16, label %17

16:                                               ; preds = %11
  store i32 -30, ptr %3, align 4
  br label %52

17:                                               ; preds = %11
  br label %18

18:                                               ; preds = %17
  %19 = load ptr, ptr %6, align 8
  %20 = getelementptr inbounds %struct.archive_read_disk, ptr %19, i32 0, i32 0
  call void @archive_clear_error(ptr noundef %20)
  br label %21

21:                                               ; preds = %18
  %22 = getelementptr inbounds %struct.archive_string, ptr %7, i32 0, i32 0
  store ptr null, ptr %22, align 8
  %23 = getelementptr inbounds %struct.archive_string, ptr %7, i32 0, i32 1
  store i64 0, ptr %23, align 8
  %24 = getelementptr inbounds %struct.archive_string, ptr %7, i32 0, i32 2
  store i64 0, ptr %24, align 8
  br label %25

25:                                               ; preds = %21
  %26 = load ptr, ptr %5, align 8
  %27 = load ptr, ptr %5, align 8
  %28 = call i64 @wcslen(ptr noundef %27) #12
  %29 = call i32 @archive_string_append_from_wcs(ptr noundef %7, ptr noundef %26, i64 noundef %28)
  %30 = icmp ne i32 %29, 0
  br i1 %30, label %31, label %45

31:                                               ; preds = %25
  %32 = call ptr @__errno_location() #13
  %33 = load i32, ptr %32, align 4
  %34 = icmp eq i32 %33, 12
  br i1 %34, label %35, label %38

35:                                               ; preds = %31
  %36 = load ptr, ptr %6, align 8
  %37 = getelementptr inbounds %struct.archive_read_disk, ptr %36, i32 0, i32 0
  call void (ptr, i32, ptr, ...) @archive_set_error(ptr noundef %37, i32 noundef 12, ptr noundef @.str.15)
  br label %41

38:                                               ; preds = %31
  %39 = load ptr, ptr %6, align 8
  %40 = getelementptr inbounds %struct.archive_read_disk, ptr %39, i32 0, i32 0
  call void (ptr, i32, ptr, ...) @archive_set_error(ptr noundef %40, i32 noundef -1, ptr noundef @.str.16)
  br label %41

41:                                               ; preds = %38, %35
  %42 = load ptr, ptr %6, align 8
  %43 = getelementptr inbounds %struct.archive_read_disk, ptr %42, i32 0, i32 0
  %44 = getelementptr inbounds %struct.archive, ptr %43, i32 0, i32 1
  store i32 32768, ptr %44, align 4
  store i32 -30, ptr %8, align 4
  br label %50

45:                                               ; preds = %25
  %46 = load ptr, ptr %4, align 8
  %47 = getelementptr inbounds %struct.archive_string, ptr %7, i32 0, i32 0
  %48 = load ptr, ptr %47, align 8
  %49 = call i32 @_archive_read_disk_open(ptr noundef %46, ptr noundef %48)
  store i32 %49, ptr %8, align 4
  br label %50

50:                                               ; preds = %45, %41
  call void @archive_string_free(ptr noundef %7)
  %51 = load i32, ptr %8, align 4
  store i32 %51, ptr %3, align 4
  br label %52

52:                                               ; preds = %50, %16
  %53 = load i32, ptr %3, align 4
  ret i32 %53
}