; Function Attrs: nounwind uwtable
define dso_local range(i32 -30, 1) i32 @archive_read_disk_open_w(ptr noundef %0, ptr noundef %1) local_unnamed_addr #0 {
  %3 = alloca %struct.archive_string, align 8
  %4 = tail call i32 @__archive_check_magic(ptr noundef %0, i32 noundef 195932357, i32 noundef 33, ptr noundef nonnull @.str.14) #17
  %5 = icmp eq i32 %4, -30
  br i1 %5, label %40, label %6

6:                                                ; preds = %2
  tail call void @archive_clear_error(ptr noundef %0) #17
  call void @llvm.memset.p0.i64(ptr noundef nonnull align 8 dereferenceable(24) %3, i8 0, i64 24, i1 false)
  %7 = tail call i64 @wcslen(ptr noundef %1) #20
  %8 = call i32 @archive_string_append_from_wcs(ptr noundef nonnull %3, ptr noundef %1, i64 noundef %7) #17
  %.not = icmp eq i32 %8, 0
  br i1 %.not, label %15, label %9

9:                                                ; preds = %6
  %10 = tail call ptr @__errno_location() #21
  %11 = load i32, ptr %10, align 4
  %12 = icmp eq i32 %11, 12
  br i1 %12, label %13, label %14

13:                                               ; preds = %9
  call void (ptr, i32, ptr, ...) @archive_set_error(ptr noundef %0, i32 noundef 12, ptr noundef nonnull @.str.15) #17
  br label %_archive_read_disk_open.exit

14:                                               ; preds = %9
  call void (ptr, i32, ptr, ...) @archive_set_error(ptr noundef %0, i32 noundef -1, ptr noundef nonnull @.str.16) #17
  br label %_archive_read_disk_open.exit

15:                                               ; preds = %6
  %16 = load ptr, ptr %3, align 8
  %17 = getelementptr inbounds nuw i8, ptr %0, i64 160
  %18 = load ptr, ptr %17, align 8
  %.not.i = icmp eq ptr %18, null
  br i1 %.not.i, label %24, label %19

19:                                               ; preds = %15
  %20 = getelementptr inbounds nuw i8, ptr %0, i64 192
  %21 = load i32, ptr %20, align 8
  %22 = and i32 %21, 1
  %23 = call fastcc ptr @tree_reopen(ptr noundef %18, ptr noundef %16, i32 noundef %22)
  br label %38

24:                                               ; preds = %15
  %25 = getelementptr inbounds nuw i8, ptr %0, i64 152
  %26 = load i8, ptr %25, align 8
  %27 = getelementptr inbounds nuw i8, ptr %0, i64 192
  %28 = load i32, ptr %27, align 8
  %29 = call noalias dereferenceable_or_null(560) ptr @calloc(i64 noundef 1, i64 noundef 560) #18
  %30 = icmp eq ptr %29, null
  br i1 %30, label %37, label %31

31:                                               ; preds = %24
  %32 = and i32 %28, 1
  %33 = getelementptr inbounds nuw i8, ptr %29, i64 48
  %34 = call ptr @archive_string_ensure(ptr noundef nonnull %33, i64 noundef 31) #17
  %35 = getelementptr inbounds nuw i8, ptr %29, i64 480
  store i8 %26, ptr %35, align 8
  %36 = call fastcc ptr @tree_reopen(ptr noundef %29, ptr noundef %16, i32 noundef range(i32 0, 2) %32)
  br label %38

37:                                               ; preds = %24
  store ptr null, ptr %17, align 8
  call void (ptr, i32, ptr, ...) @archive_set_error(ptr noundef nonnull %0, i32 noundef 12, ptr noundef nonnull @.str.30) #17
  br label %_archive_read_disk_open.exit

38:                                               ; preds = %31, %19
  %storemerge.ph.i = phi ptr [ %29, %31 ], [ %18, %19 ]
  store ptr %storemerge.ph.i, ptr %17, align 8
  br label %_archive_read_disk_open.exit

_archive_read_disk_open.exit:                     ; preds = %38, %37, %13, %14
  %.sink.i.sink = phi i32 [ 32768, %14 ], [ 32768, %13 ], [ 2, %38 ], [ 32768, %37 ]
  %.011 = phi i32 [ -30, %14 ], [ -30, %13 ], [ 0, %38 ], [ -30, %37 ]
  %39 = getelementptr inbounds nuw i8, ptr %0, i64 4
  store i32 %.sink.i.sink, ptr %39, align 4
  call void @archive_string_free(ptr noundef nonnull %3) #17
  br label %40

40:                                               ; preds = %2, %_archive_read_disk_open.exit
  %.0 = phi i32 [ %.011, %_archive_read_disk_open.exit ], [ -30, %2 ]
  ret i32 %.0
}